target datalayout = "e-m:e-p270:32:32-p271:32:32-p272:64:64-i64:64-i128:128-f80:128-n8:16:32:64-S128"
target triple = "x86_64-pc-linux-gnu"

%struct.port = type { %struct.pointf_s, double, ptr, i8, i8, i8, i8, i8, i8, ptr }
%struct.pointf_s = type { double, double }
%struct.Agedgeinfo_t = type { %struct.Agrec_s, ptr, %struct.port, %struct.port, ptr, ptr, ptr, ptr, i8, i8, i8, i8, i8, ptr, ptr, double, double, %struct.Ppoly_t, i8, i8, i16, i32, i32, i32, i16, i32, ptr }
%struct.Agrec_s = type { ptr, ptr }
%struct.Ppoly_t = type { ptr, i64 }
%struct.Agedge_s = type { %struct.Agobj_s, %struct.dtlink_s_, %struct.dtlink_s_, ptr }
%struct.Agobj_s = type { %struct.Agtag_s, ptr }
%struct.Agtag_s = type { i32, i64 }
%struct.dtlink_s_ = type { ptr, %union.anon }
%union.anon = type { ptr }
%struct.boxf = type { %struct.pointf_s, %struct.pointf_s }
%struct.Agnodeinfo_t = type { %struct.Agrec_s, ptr, ptr, %struct.pointf_s, double, double, %struct.boxf, double, double, double, double, double, ptr, ptr, ptr, i8, i8, i8, i8, i32, i32, i32, ptr, double, i8, i8, ptr, ptr, i8, i64, i8, i8, i8, ptr, ptr, %struct.elist, %struct.elist, %struct.elist, %struct.elist, %struct.elist, ptr, i32, ptr, i32, i32, double, %struct.elist, %struct.elist, %struct.elist, %struct.elist, ptr, i32, i32, i32, [1 x double] }
%struct.elist = type { ptr, i64 }

; Function Attrs: nounwind uwtable
define internal zeroext i1 @swap_ends_p(ptr noundef %0) #0 {
  %2 = alloca i1, align 1
  %3 = alloca ptr, align 8
  store ptr %0, ptr %3, align 8, !tbaa !78
  br label %4

4:                                                ; preds = %11, %1
  %5 = load ptr, ptr %3, align 8, !tbaa !78
  %6 = getelementptr inbounds nuw %struct.Agobj_s, ptr %5, i32 0, i32 1
  %7 = load ptr, ptr %6, align 8, !tbaa !22
  %8 = getelementptr inbounds nuw %struct.Agedgeinfo_t, ptr %7, i32 0, i32 13
  %9 = load ptr, ptr %8, align 8, !tbaa !129
  %10 = icmp ne ptr %9, null
  br i1 %10, label %11, label %17

11:                                               ; preds = %4
  %12 = load ptr, ptr %3, align 8, !tbaa !78
  %13 = getelementptr inbounds nuw %struct.Agobj_s, ptr %12, i32 0, i32 1
  %14 = load ptr, ptr %13, align 8, !tbaa !22
  %15 = getelementptr inbounds nuw %struct.Agedgeinfo_t, ptr %14, i32 0, i32 13
  %16 = load ptr, ptr %15, align 8, !tbaa !129
  store ptr %16, ptr %3, align 8, !tbaa !78
  br label %4, !llvm.loop !202

17:                                               ; preds = %4
  %18 = load ptr, ptr %3, align 8, !tbaa !78
  %19 = getelementptr inbounds nuw %struct.Agobj_s, ptr %18, i32 0, i32 0
  %20 = load i32, ptr %19, align 8
  %21 = and i32 %20, 3
  %22 = icmp eq i32 %21, 2
  br i1 %22, label %23, label %25

23:                                               ; preds = %17
  %24 = load ptr, ptr %3, align 8, !tbaa !78
  br label %28

25:                                               ; preds = %17
  %26 = load ptr, ptr %3, align 8, !tbaa !78
  %27 = getelementptr inbounds %struct.Agedge_s, ptr %26, i64 -1
  br label %28

28:                                               ; preds = %25, %23
  %29 = phi ptr [ %24, %23 ], [ %27, %25 ]
  %30 = getelementptr inbounds nuw %struct.Agedge_s, ptr %29, i32 0, i32 3
  %31 = load ptr, ptr %30, align 8, !tbaa !127
  %32 = getelementptr inbounds nuw %struct.Agobj_s, ptr %31, i32 0, i32 1
  %33 = load ptr, ptr %32, align 8, !tbaa !22
  %34 = getelementptr inbounds nuw %struct.Agnodeinfo_t, ptr %33, i32 0, i32 43
  %35 = load i32, ptr %34, align 8, !tbaa !133
  %36 = load ptr, ptr %3, align 8, !tbaa !78
  %37 = getelementptr inbounds nuw %struct.Agobj_s, ptr %36, i32 0, i32 0
  %38 = load i32, ptr %37, align 8
  %39 = and i32 %38, 3
  %40 = icmp eq i32 %39, 3
  br i1 %40, label %41, label %43

41:                                               ; preds = %28
  %42 = load ptr, ptr %3, align 8, !tbaa !78
  br label %46

43:                                               ; preds = %28
  %44 = load ptr, ptr %3, align 8, !tbaa !78
  %45 = getelementptr inbounds %struct.Agedge_s, ptr %44, i64 1
  br label %46

46:                                               ; preds = %43, %41
  %47 = phi ptr [ %42, %41 ], [ %45, %43 ]
  %48 = getelementptr inbounds nuw %struct.Agedge_s, ptr %47, i32 0, i32 3
  %49 = load ptr, ptr %48, align 8, !tbaa !127
  %50 = getelementptr inbounds nuw %struct.Agobj_s, ptr %49, i32 0, i32 1
  %51 = load ptr, ptr %50, align 8, !tbaa !22
  %52 = getelementptr inbounds nuw %struct.Agnodeinfo_t, ptr %51, i32 0, i32 43
  %53 = load i32, ptr %52, align 8, !tbaa !133
  %54 = icmp sgt i32 %35, %53
  br i1 %54, label %55, label %56

55:                                               ; preds = %46
  store i1 false, ptr %2, align 1
  br label %135

56:                                               ; preds = %46
  %57 = load ptr, ptr %3, align 8, !tbaa !78
  %58 = getelementptr inbounds nuw %struct.Agobj_s, ptr %57, i32 0, i32 0
  %59 = load i32, ptr %58, align 8
  %60 = and i32 %59, 3
  %61 = icmp eq i32 %60, 2
  br i1 %61, label %62, label %64

62:                                               ; preds = %56
  %63 = load ptr, ptr %3, align 8, !tbaa !78
  br label %67

64:                                               ; preds = %56
  %65 = load ptr, ptr %3, align 8, !tbaa !78
  %66 = getelementptr inbounds %struct.Agedge_s, ptr %65, i64 -1
  br label %67

67:                                               ; preds = %64, %62
  %68 = phi ptr [ %63, %62 ], [ %66, %64 ]
  %69 = getelementptr inbounds nuw %struct.Agedge_s, ptr %68, i32 0, i32 3
  %70 = load ptr, ptr %69, align 8, !tbaa !127
  %71 = getelementptr inbounds nuw %struct.Agobj_s, ptr %70, i32 0, i32 1
  %72 = load ptr, ptr %71, align 8, !tbaa !22
  %73 = getelementptr inbounds nuw %struct.Agnodeinfo_t, ptr %72, i32 0, i32 43
  %74 = load i32, ptr %73, align 8, !tbaa !133
  %75 = load ptr, ptr %3, align 8, !tbaa !78
  %76 = getelementptr inbounds nuw %struct.Agobj_s, ptr %75, i32 0, i32 0
  %77 = load i32, ptr %76, align 8
  %78 = and i32 %77, 3
  %79 = icmp eq i32 %78, 3
  br i1 %79, label %80, label %82

80:                                               ; preds = %67
  %81 = load ptr, ptr %3, align 8, !tbaa !78
  br label %85

82:                                               ; preds = %67
  %83 = load ptr, ptr %3, align 8, !tbaa !78
  %84 = getelementptr inbounds %struct.Agedge_s, ptr %83, i64 1
  br label %85

85:                                               ; preds = %82, %80
  %86 = phi ptr [ %81, %80 ], [ %84, %82 ]
  %87 = getelementptr inbounds nuw %struct.Agedge_s, ptr %86, i32 0, i32 3
  %88 = load ptr, ptr %87, align 8, !tbaa !127
  %89 = getelementptr inbounds nuw %struct.Agobj_s, ptr %88, i32 0, i32 1
  %90 = load ptr, ptr %89, align 8, !tbaa !22
  %91 = getelementptr inbounds nuw %struct.Agnodeinfo_t, ptr %90, i32 0, i32 43
  %92 = load i32, ptr %91, align 8, !tbaa !133
  %93 = icmp slt i32 %74, %92
  br i1 %93, label %94, label %95

94:                                               ; preds = %85
  store i1 true, ptr %2, align 1
  br label %135

95:                                               ; preds = %85
  %96 = load ptr, ptr %3, align 8, !tbaa !78
  %97 = getelementptr inbounds nuw %struct.Agobj_s, ptr %96, i32 0, i32 0
  %98 = load i32, ptr %97, align 8
  %99 = and i32 %98, 3
  %100 = icmp eq i32 %99, 2
  br i1 %100, label %101, label %103

101:                                              ; preds = %95
  %102 = load ptr, ptr %3, align 8, !tbaa !78
  br label %106

103:                                              ; preds = %95
  %104 = load ptr, ptr %3, align 8, !tbaa !78
  %105 = getelementptr inbounds %struct.Agedge_s, ptr %104, i64 -1
  br label %106

106:                                              ; preds = %103, %101
  %107 = phi ptr [ %102, %101 ], [ %105, %103 ]
  %108 = getelementptr inbounds nuw %struct.Agedge_s, ptr %107, i32 0, i32 3
  %109 = load ptr, ptr %108, align 8, !tbaa !127
  %110 = getelementptr inbounds nuw %struct.Agobj_s, ptr %109, i32 0, i32 1
  %111 = load ptr, ptr %110, align 8, !tbaa !22
  %112 = getelementptr inbounds nuw %struct.Agnodeinfo_t, ptr %111, i32 0, i32 44
  %113 = load i32, ptr %112, align 4, !tbaa !150
  %114 = load ptr, ptr %3, align 8, !tbaa !78
  %115 = getelementptr inbounds nuw %struct.Agobj_s, ptr %114, i32 0, i32 0
  %116 = load i32, ptr %115, align 8
  %117 = and i32 %116, 3
  %118 = icmp eq i32 %117, 3
  br i1 %118, label %119, label %121

119:                                              ; preds = %106
  %120 = load ptr, ptr %3, align 8, !tbaa !78
  br label %124

121:                                              ; preds = %106
  %122 = load ptr, ptr %3, align 8, !tbaa !78
  %123 = getelementptr inbounds %struct.Agedge_s, ptr %122, i64 1
  br label %124

124:                                              ; preds = %121, %119
  %125 = phi ptr [ %120, %119 ], [ %123, %121 ]
  %126 = getelementptr inbounds nuw %struct.Agedge_s, ptr %125, i32 0, i32 3
  %127 = load ptr, ptr %126, align 8, !tbaa !127
  %128 = getelementptr inbounds nuw %struct.Agobj_s, ptr %127, i32 0, i32 1
  %129 = load ptr, ptr %128, align 8, !tbaa !22
  %130 = getelementptr inbounds nuw %struct.Agnodeinfo_t, ptr %129, i32 0, i32 44
  %131 = load i32, ptr %130, align 4, !tbaa !150
  %132 = icmp sge i32 %113, %131
  br i1 %132, label %133, label %134

133:                                              ; preds = %124
  store i1 false, ptr %2, align 1
  br label %135

134:                                              ; preds = %124
  store i1 true, ptr %2, align 1
  br label %135

135:                                              ; preds = %134, %133, %94, %55
  %136 = load i1, ptr %2, align 1
  ret i1 %136
}