; Function Attrs: nofree norecurse nosync nounwind memory(read, inaccessiblemem: none) uwtable
define internal zeroext i1 @swap_ends_p(ptr noundef readonly captures(none) %0) #13 {
  br label %2

2:                                                ; preds = %2, %1
  %.0 = phi ptr [ %0, %1 ], [ %6, %2 ]
  %3 = getelementptr inbounds nuw i8, ptr %.0, i64 16
  %4 = load ptr, ptr %3, align 8, !tbaa !16
  %5 = getelementptr inbounds nuw i8, ptr %4, i64 160
  %6 = load ptr, ptr %5, align 8, !tbaa !121
  %.not = icmp eq ptr %6, null
  br i1 %.not, label %7, label %2, !llvm.loop !250

7:                                                ; preds = %2
  %8 = load i32, ptr %.0, align 8
  %9 = and i32 %8, 3
  %10 = icmp eq i32 %9, 2
  %.idx = select i1 %10, i64 0, i64 -64
  %11 = getelementptr inbounds i8, ptr %.0, i64 %.idx
  %12 = getelementptr inbounds nuw i8, ptr %11, i64 56
  %13 = load ptr, ptr %12, align 8, !tbaa !107
  %14 = getelementptr inbounds nuw i8, ptr %13, i64 16
  %15 = load ptr, ptr %14, align 8, !tbaa !16
  %16 = getelementptr inbounds nuw i8, ptr %15, i64 360
  %17 = load i32, ptr %16, align 8, !tbaa !112
  %18 = icmp eq i32 %9, 3
  %.idx25 = select i1 %18, i64 0, i64 64
  %19 = getelementptr inbounds nuw i8, ptr %.0, i64 %.idx25
  %20 = getelementptr inbounds nuw i8, ptr %19, i64 56
  %21 = load ptr, ptr %20, align 8, !tbaa !107
  %22 = getelementptr inbounds nuw i8, ptr %21, i64 16
  %23 = load ptr, ptr %22, align 8, !tbaa !16
  %24 = getelementptr inbounds nuw i8, ptr %23, i64 360
  %25 = load i32, ptr %24, align 8, !tbaa !112
  %26 = icmp sgt i32 %17, %25
  br i1 %26, label %34, label %27

27:                                               ; preds = %7
  %28 = icmp slt i32 %17, %25
  br i1 %28, label %34, label %29

29:                                               ; preds = %27
  %30 = getelementptr inbounds nuw i8, ptr %15, i64 364
  %31 = load i32, ptr %30, align 4, !tbaa !108
  %32 = getelementptr inbounds nuw i8, ptr %23, i64 364
  %33 = load i32, ptr %32, align 4, !tbaa !108
  %.not26 = icmp slt i32 %31, %33
  br label %34

34:                                               ; preds = %29, %27, %7
  %.021 = phi i1 [ false, %7 ], [ true, %27 ], [ %.not26, %29 ]
  ret i1 %.021
}